Certificate:
    Data:
        Version: 3 (0x2)
        Serial Number: 905719 (0xdd1f7)
    Signature Algorithm: sha256WithRSAEncryption
        Issuer: CN=web-platform-tests
        Validity
            Not Before: Jun  2 02:45:17 2023 GMT
            Not After : Jun  1 02:45:17 2024 GMT
        Subject: CN=web-platform.test
        Subject Public Key Info:
            Public Key Algorithm: rsaEncryption
                RSA Public-Key: (2048 bit)
                Modulus:
                    00:db:41:da:58:76:96:0d:77:0d:b5:db:56:80:8c:
                    8f:c0:6c:df:23:47:12:e3:0f:72:9a:6a:13:fb:c4:
                    2b:cc:76:ed:20:05:26:d5:92:be:0e:61:43:1c:93:
                    37:fe:c5:63:d4:eb:0d:d8:67:c0:94:b0:87:3f:35:
                    00:fa:8f:77:42:d4:8c:f7:c7:9f:b4:1e:91:5f:aa:
                    85:b1:db:66:e4:cd:e2:0c:ef:f5:fd:f2:78:ec:9a:
                    5b:f8:ed:30:44:9a:f3:0a:0f:da:f3:df:21:c6:31:
                    d8:bd:32:6c:dd:42:88:50:06:71:68:89:d0:95:fc:
                    05:aa:78:a1:0e:97:13:d8:87:37:53:82:16:ef:ec:
                    53:21:0f:82:3b:1f:3d:ce:3a:f7:e6:b2:bc:04:59:
                    37:2f:3f:4d:ff:d5:5e:3a:27:88:76:a0:82:d8:10:
                    b8:25:cd:2e:5d:09:01:44:8c:06:dd:f1:22:09:95:
                    3f:98:32:35:8c:65:7c:c7:83:12:3e:50:d2:45:81:
                    c6:cd:50:49:11:ff:7b:f9:f1:81:ab:75:59:a7:78:
                    8e:54:8d:5b:35:a2:4f:2e:a3:f7:b2:f4:e6:89:4b:
                    05:8e:0a:b5:97:6a:c8:25:30:39:14:f4:9f:09:5a:
                    87:1e:fd:0f:0f:22:53:86:74:90:ac:f9:b4:7d:da:
                    91:2f
                Exponent: 65537 (0x10001)
        X509v3 extensions:
            X509v3 Basic Constraints: 
                CA:FALSE
            X509v3 Subject Key Identifier: 
                AF:6B:74:D4:D8:85:48:A2:50:B9:E3:9C:2D:1A:91:A9:94:75:60:A5
            X509v3 Authority Key Identifier: 
                keyid:66:D9:96:67:2C:0F:BA:46:72:93:D2:AE:35:E7:B4:40:AA:88:E3:4A

            X509v3 Key Usage: 
                Digital Signature, Non Repudiation, Key Encipherment
            X509v3 Extended Key Usage: 
                TLS Web Server Authentication
            X509v3 Subject Alternative Name: 
                DNS:web-platform.test, DNS:not-web-platform.test, DNS:www.web-platform.test, DNS:www1.web-platform.test, DNS:www2.web-platform.test, DNS:www.not-web-platform.test, DNS:www.www.web-platform.test, DNS:www2.not-web-platform.test, DNS:www1.not-web-platform.test, DNS:www.www1.web-platform.test, DNS:www1.www.web-platform.test, DNS:www2.www.web-platform.test, DNS:www.www2.web-platform.test, DNS:www2.www1.web-platform.test, DNS:www2.www2.web-platform.test, DNS:www1.www1.web-platform.test, DNS:www1.www2.web-platform.test, DNS:www.www.not-web-platform.test, DNS:www.www2.not-web-platform.test, DNS:www.www1.not-web-platform.test, DNS:xn--lve-6lad.web-platform.test, DNS:www1.www.not-web-platform.test, DNS:www2.www.not-web-platform.test, DNS:www2.www1.not-web-platform.test, DNS:www1.www2.not-web-platform.test, DNS:www1.www1.not-web-platform.test, DNS:www2.www2.not-web-platform.test, DNS:www.xn--lve-6lad.web-platform.test, DNS:xn--lve-6lad.www.web-platform.test, DNS:xn--lve-6lad.not-web-platform.test, DNS:xn--lve-6lad.www2.web-platform.test, DNS:xn--lve-6lad.www1.web-platform.test, DNS:www2.xn--lve-6lad.web-platform.test, DNS:www1.xn--lve-6lad.web-platform.test, DNS:www.xn--lve-6lad.not-web-platform.test, DNS:xn--lve-6lad.www.not-web-platform.test, DNS:xn--lve-6lad.www2.not-web-platform.test, DNS:xn--lve-6lad.www1.not-web-platform.test, DNS:www1.xn--lve-6lad.not-web-platform.test, DNS:www2.xn--lve-6lad.not-web-platform.test, DNS:xn--n8j6ds53lwwkrqhv28a.web-platform.test, DNS:xn--lve-6lad.xn--lve-6lad.web-platform.test, DNS:www.xn--n8j6ds53lwwkrqhv28a.web-platform.test, DNS:xn--n8j6ds53lwwkrqhv28a.www.web-platform.test, DNS:xn--n8j6ds53lwwkrqhv28a.not-web-platform.test, DNS:www2.xn--n8j6ds53lwwkrqhv28a.web-platform.test, DNS:www1.xn--n8j6ds53lwwkrqhv28a.web-platform.test, DNS:xn--n8j6ds53lwwkrqhv28a.www1.web-platform.test, DNS:xn--n8j6ds53lwwkrqhv28a.www2.web-platform.test, DNS:xn--lve-6lad.xn--lve-6lad.not-web-platform.test, DNS:www.xn--n8j6ds53lwwkrqhv28a.not-web-platform.test, DNS:xn--n8j6ds53lwwkrqhv28a.www.not-web-platform.test, DNS:www1.xn--n8j6ds53lwwkrqhv28a.not-web-platform.test, DNS:xn--n8j6ds53lwwkrqhv28a.www1.not-web-platform.test, DNS:www2.xn--n8j6ds53lwwkrqhv28a.not-web-platform.test, DNS:xn--n8j6ds53lwwkrqhv28a.www2.not-web-platform.test, DNS:xn--n8j6ds53lwwkrqhv28a.xn--lve-6lad.web-platform.test, DNS:xn--lve-6lad.xn--n8j6ds53lwwkrqhv28a.web-platform.test, DNS:xn--lve-6lad.xn--n8j6ds53lwwkrqhv28a.not-web-platform.test, DNS:xn--n8j6ds53lwwkrqhv28a.xn--lve-6lad.not-web-platform.test, DNS:xn--n8j6ds53lwwkrqhv28a.xn--n8j6ds53lwwkrqhv28a.web-platform.test, DNS:xn--n8j6ds53lwwkrqhv28a.xn--n8j6ds53lwwkrqhv28a.not-web-platform.test
    Signature Algorithm: sha256WithRSAEncryption
         20:b8:e5:97:9b:08:4c:bf:34:a6:4c:4b:7c:97:b6:93:5d:29:
         1a:f0:65:66:19:8b:77:5e:7b:e5:33:96:68:31:2e:40:5d:47:
         47:56:ba:75:18:3a:e8:8a:12:8b:2f:a7:30:f0:91:82:6c:88:
         c3:31:7d:07:aa:9b:78:98:4c:c7:fd:e9:28:89:c0:57:2c:ed:
         28:2a:79:b7:6d:bf:7a:6f:15:e4:ae:4e:1c:56:1e:27:78:5a:
         a5:7f:78:b6:e8:d8:38:79:cc:32:53:9c:0e:8f:fe:a2:c2:82:
         27:b1:d3:f9:ee:10:9b:5a:42:26:3d:ee:05:b3:15:9f:40:ce:
         8d:6a:4f:97:3b:20:37:6e:ff:65:ca:18:85:d3:77:0e:4e:fe:
         b0:71:61:91:22:28:9e:d5:17:13:8b:85:1a:8b:9b:17:ff:bd:
         b5:fd:81:c5:2d:de:40:cd:47:c3:a5:9e:eb:70:b3:e2:57:8a:
         46:02:22:41:a5:5f:71:30:3e:65:30:46:70:4d:67:49:3a:11:
         f0:03:5c:6b:a5:ae:ca:73:b0:35:91:89:63:9a:65:c9:65:ff:
         43:59:5b:af:b6:b9:2e:35:d6:47:26:d1:d4:7b:22:c1:79:28:
         cb:8c:a3:d2:d3:1d:b6:dc:39:de:f1:ba:b0:10:91:bd:16:e9:
         53:cd:77:e4
-----BEGIN CERTIFICATE-----
MIIMsjCCC5qgAwIBAgIDDdH3MA0GCSqGSIb3DQEBCwUAMB0xGzAZBgNVBAMMEndl
Yi1wbGF0Zm9ybS10ZXN0czAeFw0yMzA2MDIwMjQ1MTdaFw0yNDA2MDEwMjQ1MTda
MBwxGjAYBgNVBAMMEXdlYi1wbGF0Zm9ybS50ZXN0MIIBIjANBgkqhkiG9w0BAQEF
AAOCAQ8AMIIBCgKCAQEA20HaWHaWDXcNtdtWgIyPwGzfI0cS4w9ymmoT+8QrzHbt
IAUm1ZK+DmFDHJM3/sVj1OsN2GfAlLCHPzUA+o93QtSM98eftB6RX6qFsdtm5M3i
DO/1/fJ47Jpb+O0wRJrzCg/a898hxjHYvTJs3UKIUAZxaInQlfwFqnihDpcT2Ic3
U4IW7+xTIQ+COx89zjr35rK8BFk3Lz9N/9VeOieIdqCC2BC4Jc0uXQkBRIwG3fEi
CZU/mDI1jGV8x4MSPlDSRYHGzVBJEf97+fGBq3VZp3iOVI1bNaJPLqP3svTmiUsF
jgq1l2rIJTA5FPSfCVqHHv0PDyJThnSQrPm0fdqRLwIDAQABo4IJ+jCCCfYwCQYD
VR0TBAIwADAdBgNVHQ4EFgQUr2t01NiFSKJQueOcLRqRqZR1YKUwHwYDVR0jBBgw
FoAUZtmWZywPukZyk9KuNee0QKqI40owCwYDVR0PBAQDAgXgMBMGA1UdJQQMMAoG
CCsGAQUFBwMBMIIJhQYDVR0RBIIJfDCCCXiCEXdlYi1wbGF0Zm9ybS50ZXN0ghVu
b3Qtd2ViLXBsYXRmb3JtLnRlc3SCFXd3dy53ZWItcGxhdGZvcm0udGVzdIIWd3d3
MS53ZWItcGxhdGZvcm0udGVzdIIWd3d3Mi53ZWItcGxhdGZvcm0udGVzdIIZd3d3
Lm5vdC13ZWItcGxhdGZvcm0udGVzdIIZd3d3Lnd3dy53ZWItcGxhdGZvcm0udGVz
dIIad3d3Mi5ub3Qtd2ViLXBsYXRmb3JtLnRlc3SCGnd3dzEubm90LXdlYi1wbGF0
Zm9ybS50ZXN0ghp3d3cud3d3MS53ZWItcGxhdGZvcm0udGVzdIIad3d3MS53d3cu
d2ViLXBsYXRmb3JtLnRlc3SCGnd3dzIud3d3LndlYi1wbGF0Zm9ybS50ZXN0ghp3
d3cud3d3Mi53ZWItcGxhdGZvcm0udGVzdIIbd3d3Mi53d3cxLndlYi1wbGF0Zm9y
bS50ZXN0ght3d3cyLnd3dzIud2ViLXBsYXRmb3JtLnRlc3SCG3d3dzEud3d3MS53
ZWItcGxhdGZvcm0udGVzdIIbd3d3MS53d3cyLndlYi1wbGF0Zm9ybS50ZXN0gh13
d3cud3d3Lm5vdC13ZWItcGxhdGZvcm0udGVzdIIed3d3Lnd3dzIubm90LXdlYi1w
bGF0Zm9ybS50ZXN0gh53d3cud3d3MS5ub3Qtd2ViLXBsYXRmb3JtLnRlc3SCHnhu
LS1sdmUtNmxhZC53ZWItcGxhdGZvcm0udGVzdIIed3d3MS53d3cubm90LXdlYi1w
bGF0Zm9ybS50ZXN0gh53d3cyLnd3dy5ub3Qtd2ViLXBsYXRmb3JtLnRlc3SCH3d3
dzIud3d3MS5ub3Qtd2ViLXBsYXRmb3JtLnRlc3SCH3d3dzEud3d3Mi5ub3Qtd2Vi
LXBsYXRmb3JtLnRlc3SCH3d3dzEud3d3MS5ub3Qtd2ViLXBsYXRmb3JtLnRlc3SC
H3d3dzIud3d3Mi5ub3Qtd2ViLXBsYXRmb3JtLnRlc3SCInd3dy54bi0tbHZlLTZs
YWQud2ViLXBsYXRmb3JtLnRlc3SCInhuLS1sdmUtNmxhZC53d3cud2ViLXBsYXRm
b3JtLnRlc3SCInhuLS1sdmUtNmxhZC5ub3Qtd2ViLXBsYXRmb3JtLnRlc3SCI3hu
LS1sdmUtNmxhZC53d3cyLndlYi1wbGF0Zm9ybS50ZXN0giN4bi0tbHZlLTZsYWQu
d3d3MS53ZWItcGxhdGZvcm0udGVzdIIjd3d3Mi54bi0tbHZlLTZsYWQud2ViLXBs
YXRmb3JtLnRlc3SCI3d3dzEueG4tLWx2ZS02bGFkLndlYi1wbGF0Zm9ybS50ZXN0
giZ3d3cueG4tLWx2ZS02bGFkLm5vdC13ZWItcGxhdGZvcm0udGVzdIImeG4tLWx2
ZS02bGFkLnd3dy5ub3Qtd2ViLXBsYXRmb3JtLnRlc3SCJ3huLS1sdmUtNmxhZC53
d3cyLm5vdC13ZWItcGxhdGZvcm0udGVzdIIneG4tLWx2ZS02bGFkLnd3dzEubm90
LXdlYi1wbGF0Zm9ybS50ZXN0gid3d3cxLnhuLS1sdmUtNmxhZC5ub3Qtd2ViLXBs
YXRmb3JtLnRlc3SCJ3d3dzIueG4tLWx2ZS02bGFkLm5vdC13ZWItcGxhdGZvcm0u
dGVzdIIpeG4tLW44ajZkczUzbHd3a3JxaHYyOGEud2ViLXBsYXRmb3JtLnRlc3SC
K3huLS1sdmUtNmxhZC54bi0tbHZlLTZsYWQud2ViLXBsYXRmb3JtLnRlc3SCLXd3
dy54bi0tbjhqNmRzNTNsd3drcnFodjI4YS53ZWItcGxhdGZvcm0udGVzdIIteG4t
LW44ajZkczUzbHd3a3JxaHYyOGEud3d3LndlYi1wbGF0Zm9ybS50ZXN0gi14bi0t
bjhqNmRzNTNsd3drcnFodjI4YS5ub3Qtd2ViLXBsYXRmb3JtLnRlc3SCLnd3dzIu
eG4tLW44ajZkczUzbHd3a3JxaHYyOGEud2ViLXBsYXRmb3JtLnRlc3SCLnd3dzEu
eG4tLW44ajZkczUzbHd3a3JxaHYyOGEud2ViLXBsYXRmb3JtLnRlc3SCLnhuLS1u
OGo2ZHM1M2x3d2tycWh2MjhhLnd3dzEud2ViLXBsYXRmb3JtLnRlc3SCLnhuLS1u
OGo2ZHM1M2x3d2tycWh2MjhhLnd3dzIud2ViLXBsYXRmb3JtLnRlc3SCL3huLS1s
dmUtNmxhZC54bi0tbHZlLTZsYWQubm90LXdlYi1wbGF0Zm9ybS50ZXN0gjF3d3cu
eG4tLW44ajZkczUzbHd3a3JxaHYyOGEubm90LXdlYi1wbGF0Zm9ybS50ZXN0gjF4
bi0tbjhqNmRzNTNsd3drcnFodjI4YS53d3cubm90LXdlYi1wbGF0Zm9ybS50ZXN0
gjJ3d3cxLnhuLS1uOGo2ZHM1M2x3d2tycWh2MjhhLm5vdC13ZWItcGxhdGZvcm0u
dGVzdIIyeG4tLW44ajZkczUzbHd3a3JxaHYyOGEud3d3MS5ub3Qtd2ViLXBsYXRm
b3JtLnRlc3SCMnd3dzIueG4tLW44ajZkczUzbHd3a3JxaHYyOGEubm90LXdlYi1w
bGF0Zm9ybS50ZXN0gjJ4bi0tbjhqNmRzNTNsd3drcnFodjI4YS53d3cyLm5vdC13
ZWItcGxhdGZvcm0udGVzdII2eG4tLW44ajZkczUzbHd3a3JxaHYyOGEueG4tLWx2
ZS02bGFkLndlYi1wbGF0Zm9ybS50ZXN0gjZ4bi0tbHZlLTZsYWQueG4tLW44ajZk
czUzbHd3a3JxaHYyOGEud2ViLXBsYXRmb3JtLnRlc3SCOnhuLS1sdmUtNmxhZC54
bi0tbjhqNmRzNTNsd3drcnFodjI4YS5ub3Qtd2ViLXBsYXRmb3JtLnRlc3SCOnhu
LS1uOGo2ZHM1M2x3d2tycWh2MjhhLnhuLS1sdmUtNmxhZC5ub3Qtd2ViLXBsYXRm
b3JtLnRlc3SCQXhuLS1uOGo2ZHM1M2x3d2tycWh2MjhhLnhuLS1uOGo2ZHM1M2x3
d2tycWh2MjhhLndlYi1wbGF0Zm9ybS50ZXN0gkV4bi0tbjhqNmRzNTNsd3drcnFo
djI4YS54bi0tbjhqNmRzNTNsd3drcnFodjI4YS5ub3Qtd2ViLXBsYXRmb3JtLnRl
c3QwDQYJKoZIhvcNAQELBQADggEBACC45ZebCEy/NKZMS3yXtpNdKRrwZWYZi3de
e+UzlmgxLkBdR0dWunUYOuiKEosvpzDwkYJsiMMxfQeqm3iYTMf96SiJwFcs7Sgq
ebdtv3pvFeSuThxWHid4WqV/eLbo2Dh5zDJTnA6P/qLCgiex0/nuEJtaQiY97gWz
FZ9Azo1qT5c7IDdu/2XKGIXTdw5O/rBxYZEiKJ7VFxOLhRqLmxf/vbX9gcUt3kDN
R8Olnutws+JXikYCIkGlX3EwPmUwRnBNZ0k6EfADXGulrspzsDWRiWOaZcll/0NZ
W6+2uS411kcm0dR7IsF5KMuMo9LTHbbcOd7xurAQkb0W6VPNd+Q=
-----END CERTIFICATE-----
