Certificate:
    Data:
        Version: 3 (0x2)
        Serial Number: 76839 (0x12c27)
        Signature Algorithm: sha256WithRSAEncryption
        Issuer: CN=web-platform-tests
        Validity
            Not Before: Apr 12 01:11:59 2025 GMT
            Not After : Apr 12 01:11:59 2026 GMT
        Subject: CN=web-platform.test
        Subject Public Key Info:
            Public Key Algorithm: rsaEncryption
                Public-Key: (2048 bit)
                Modulus:
                    00:ad:e8:55:c3:a4:79:26:c8:53:a3:64:99:09:46:
                    09:82:bd:3c:25:11:bd:35:00:4e:ea:2f:3d:3e:49:
                    c1:c7:dd:dd:5a:d8:72:4c:02:4c:ff:ac:49:19:fd:
                    76:2d:76:95:cd:72:59:2e:17:9a:45:bf:38:37:f7:
                    d0:b7:b1:ae:36:2b:a4:8a:e6:ed:95:2d:44:5a:0b:
                    92:fb:6b:89:5a:21:82:42:fc:51:e6:42:1b:a9:c3:
                    80:8f:f6:84:b0:fa:5a:ff:e0:06:34:81:a7:48:c3:
                    5a:7b:9f:31:c9:98:2e:f3:8f:ae:db:73:02:97:54:
                    69:73:9c:17:d0:91:1c:13:0e:b7:f2:9c:78:ea:dd:
                    ef:e8:aa:f7:93:6a:6c:d6:da:27:f1:7e:08:1c:38:
                    97:0d:3d:9f:74:17:b8:e4:3e:03:f6:1e:82:56:33:
                    c4:cb:3f:41:0f:bc:eb:4a:a3:26:89:11:3d:7e:aa:
                    dc:40:83:62:0d:f7:aa:3f:f1:b4:28:fd:16:09:9b:
                    85:3c:45:9e:ef:69:b5:f2:e3:8f:8a:16:13:4e:23:
                    39:85:de:23:11:11:25:00:3f:26:8e:57:54:f9:ae:
                    03:60:b8:74:36:7b:3b:6e:77:0d:00:d4:dd:d6:a4:
                    0d:5b:a7:f0:04:fb:4c:e1:d1:3d:2d:02:29:19:48:
                    13:db
                Exponent: 65537 (0x10001)
        X509v3 extensions:
            X509v3 Basic Constraints: 
                CA:FALSE
            X509v3 Subject Key Identifier: 
                7C:BC:FA:E4:3E:89:B6:48:D0:26:6C:18:26:E2:CC:74:5E:76:5E:C3
            X509v3 Authority Key Identifier: 
                41:1D:58:CB:6E:F8:9A:9C:52:82:F4:AA:BC:92:E6:56:A3:31:0C:AB
            X509v3 Key Usage: 
                Digital Signature, Non Repudiation, Key Encipherment
            X509v3 Extended Key Usage: 
                TLS Web Server Authentication
            X509v3 Subject Alternative Name: 
                DNS:web-platform.test, DNS:not-web-platform.test, DNS:www.web-platform.test, DNS:www1.web-platform.test, DNS:www2.web-platform.test, DNS:www.not-web-platform.test, DNS:www.www.web-platform.test, DNS:www.www1.web-platform.test, DNS:www1.not-web-platform.test, DNS:www2.not-web-platform.test, DNS:www.www2.web-platform.test, DNS:www1.www.web-platform.test, DNS:www2.www.web-platform.test, DNS:www2.www2.web-platform.test, DNS:www1.www1.web-platform.test, DNS:www1.www2.web-platform.test, DNS:www2.www1.web-platform.test, DNS:www.www.not-web-platform.test, DNS:xn--lve-6lad.web-platform.test, DNS:www.www2.not-web-platform.test, DNS:www2.www.not-web-platform.test, DNS:www.www1.not-web-platform.test, DNS:www1.www.not-web-platform.test, DNS:www1.www1.not-web-platform.test, DNS:www2.www2.not-web-platform.test, DNS:www2.www1.not-web-platform.test, DNS:www1.www2.not-web-platform.test, DNS:xn--lve-6lad.www.web-platform.test, DNS:www.xn--lve-6lad.web-platform.test, DNS:xn--lve-6lad.not-web-platform.test, DNS:xn--lve-6lad.www1.web-platform.test, DNS:www1.xn--lve-6lad.web-platform.test, DNS:www2.xn--lve-6lad.web-platform.test, DNS:xn--lve-6lad.www2.web-platform.test, DNS:xn--lve-6lad.www.not-web-platform.test, DNS:www.xn--lve-6lad.not-web-platform.test, DNS:xn--lve-6lad.www1.not-web-platform.test, DNS:xn--lve-6lad.www2.not-web-platform.test, DNS:www1.xn--lve-6lad.not-web-platform.test, DNS:www2.xn--lve-6lad.not-web-platform.test, DNS:xn--n8j6ds53lwwkrqhv28a.web-platform.test, DNS:xn--lve-6lad.xn--lve-6lad.web-platform.test, DNS:www.xn--n8j6ds53lwwkrqhv28a.web-platform.test, DNS:xn--n8j6ds53lwwkrqhv28a.www.web-platform.test, DNS:xn--n8j6ds53lwwkrqhv28a.not-web-platform.test, DNS:xn--n8j6ds53lwwkrqhv28a.www2.web-platform.test, DNS:www2.xn--n8j6ds53lwwkrqhv28a.web-platform.test, DNS:xn--n8j6ds53lwwkrqhv28a.www1.web-platform.test, DNS:www1.xn--n8j6ds53lwwkrqhv28a.web-platform.test, DNS:xn--lve-6lad.xn--lve-6lad.not-web-platform.test, DNS:xn--n8j6ds53lwwkrqhv28a.www.not-web-platform.test, DNS:www.xn--n8j6ds53lwwkrqhv28a.not-web-platform.test, DNS:xn--n8j6ds53lwwkrqhv28a.www1.not-web-platform.test, DNS:www1.xn--n8j6ds53lwwkrqhv28a.not-web-platform.test, DNS:xn--n8j6ds53lwwkrqhv28a.www2.not-web-platform.test, DNS:www2.xn--n8j6ds53lwwkrqhv28a.not-web-platform.test, DNS:xn--lve-6lad.xn--n8j6ds53lwwkrqhv28a.web-platform.test, DNS:xn--n8j6ds53lwwkrqhv28a.xn--lve-6lad.web-platform.test, DNS:xn--n8j6ds53lwwkrqhv28a.xn--lve-6lad.not-web-platform.test, DNS:xn--lve-6lad.xn--n8j6ds53lwwkrqhv28a.not-web-platform.test, DNS:xn--n8j6ds53lwwkrqhv28a.xn--n8j6ds53lwwkrqhv28a.web-platform.test, DNS:xn--n8j6ds53lwwkrqhv28a.xn--n8j6ds53lwwkrqhv28a.not-web-platform.test
    Signature Algorithm: sha256WithRSAEncryption
    Signature Value:
        62:c7:66:39:0f:01:0e:9e:52:15:2f:74:09:4a:d8:33:d4:21:
        64:69:d7:4a:68:9e:84:39:be:d1:f7:4d:73:aa:62:06:b1:30:
        2b:4b:a0:9c:56:8d:a2:18:62:d6:5a:03:12:1a:ac:ed:c5:be:
        01:5b:d7:1a:e3:5c:46:35:47:88:95:af:a9:53:69:94:c8:0e:
        09:df:79:d8:6e:ce:44:27:df:b6:70:76:7f:ab:20:0b:fd:ef:
        23:9a:b2:19:3f:ae:1e:74:79:17:ed:bf:1a:14:44:43:f9:6a:
        ad:f7:c6:e7:bb:16:3a:1f:70:a9:e6:22:c8:29:89:cf:05:ef:
        95:32:f9:a2:fe:55:3f:59:da:b8:d6:84:81:e8:86:e2:7a:2d:
        37:ac:89:46:cc:08:82:9e:27:2d:ac:92:0e:27:63:69:77:f6:
        42:e3:bd:87:f8:ef:72:e3:87:43:e5:ea:e3:e8:57:b0:f6:c2:
        08:e4:e7:b4:27:59:c9:6c:4c:96:b0:a6:02:27:82:24:ce:58:
        c8:aa:50:48:de:dd:3e:8e:da:ec:42:94:55:37:68:8e:8a:5a:
        f4:44:8e:f8:8e:81:51:31:c8:eb:04:43:78:b6:89:a4:76:09:
        c1:7b:53:58:41:96:c6:ae:91:ca:a8:45:02:d9:e4:bc:eb:d4:
        b0:5b:a3:be
-----BEGIN CERTIFICATE-----
MIIMsjCCC5qgAwIBAgIDASwnMA0GCSqGSIb3DQEBCwUAMB0xGzAZBgNVBAMMEndl
Yi1wbGF0Zm9ybS10ZXN0czAeFw0yNTA0MTIwMTExNTlaFw0yNjA0MTIwMTExNTla
MBwxGjAYBgNVBAMMEXdlYi1wbGF0Zm9ybS50ZXN0MIIBIjANBgkqhkiG9w0BAQEF
AAOCAQ8AMIIBCgKCAQEArehVw6R5JshTo2SZCUYJgr08JRG9NQBO6i89PknBx93d
WthyTAJM/6xJGf12LXaVzXJZLheaRb84N/fQt7GuNiukiubtlS1EWguS+2uJWiGC
QvxR5kIbqcOAj/aEsPpa/+AGNIGnSMNae58xyZgu84+u23MCl1Rpc5wX0JEcEw63
8px46t3v6Kr3k2ps1ton8X4IHDiXDT2fdBe45D4D9h6CVjPEyz9BD7zrSqMmiRE9
fqrcQINiDfeqP/G0KP0WCZuFPEWe72m18uOPihYTTiM5hd4jERElAD8mjldU+a4D
YLh0Nns7bncNANTd1qQNW6fwBPtM4dE9LQIpGUgT2wIDAQABo4IJ+jCCCfYwCQYD
VR0TBAIwADAdBgNVHQ4EFgQUfLz65D6JtkjQJmwYJuLMdF52XsMwHwYDVR0jBBgw
FoAUQR1Yy274mpxSgvSqvJLmVqMxDKswCwYDVR0PBAQDAgXgMBMGA1UdJQQMMAoG
CCsGAQUFBwMBMIIJhQYDVR0RBIIJfDCCCXiCEXdlYi1wbGF0Zm9ybS50ZXN0ghVu
b3Qtd2ViLXBsYXRmb3JtLnRlc3SCFXd3dy53ZWItcGxhdGZvcm0udGVzdIIWd3d3
MS53ZWItcGxhdGZvcm0udGVzdIIWd3d3Mi53ZWItcGxhdGZvcm0udGVzdIIZd3d3
Lm5vdC13ZWItcGxhdGZvcm0udGVzdIIZd3d3Lnd3dy53ZWItcGxhdGZvcm0udGVz
dIIad3d3Lnd3dzEud2ViLXBsYXRmb3JtLnRlc3SCGnd3dzEubm90LXdlYi1wbGF0
Zm9ybS50ZXN0ghp3d3cyLm5vdC13ZWItcGxhdGZvcm0udGVzdIIad3d3Lnd3dzIu
d2ViLXBsYXRmb3JtLnRlc3SCGnd3dzEud3d3LndlYi1wbGF0Zm9ybS50ZXN0ghp3
d3cyLnd3dy53ZWItcGxhdGZvcm0udGVzdIIbd3d3Mi53d3cyLndlYi1wbGF0Zm9y
bS50ZXN0ght3d3cxLnd3dzEud2ViLXBsYXRmb3JtLnRlc3SCG3d3dzEud3d3Mi53
ZWItcGxhdGZvcm0udGVzdIIbd3d3Mi53d3cxLndlYi1wbGF0Zm9ybS50ZXN0gh13
d3cud3d3Lm5vdC13ZWItcGxhdGZvcm0udGVzdIIeeG4tLWx2ZS02bGFkLndlYi1w
bGF0Zm9ybS50ZXN0gh53d3cud3d3Mi5ub3Qtd2ViLXBsYXRmb3JtLnRlc3SCHnd3
dzIud3d3Lm5vdC13ZWItcGxhdGZvcm0udGVzdIIed3d3Lnd3dzEubm90LXdlYi1w
bGF0Zm9ybS50ZXN0gh53d3cxLnd3dy5ub3Qtd2ViLXBsYXRmb3JtLnRlc3SCH3d3
dzEud3d3MS5ub3Qtd2ViLXBsYXRmb3JtLnRlc3SCH3d3dzIud3d3Mi5ub3Qtd2Vi
LXBsYXRmb3JtLnRlc3SCH3d3dzIud3d3MS5ub3Qtd2ViLXBsYXRmb3JtLnRlc3SC
H3d3dzEud3d3Mi5ub3Qtd2ViLXBsYXRmb3JtLnRlc3SCInhuLS1sdmUtNmxhZC53
d3cud2ViLXBsYXRmb3JtLnRlc3SCInd3dy54bi0tbHZlLTZsYWQud2ViLXBsYXRm
b3JtLnRlc3SCInhuLS1sdmUtNmxhZC5ub3Qtd2ViLXBsYXRmb3JtLnRlc3SCI3hu
LS1sdmUtNmxhZC53d3cxLndlYi1wbGF0Zm9ybS50ZXN0giN3d3cxLnhuLS1sdmUt
NmxhZC53ZWItcGxhdGZvcm0udGVzdIIjd3d3Mi54bi0tbHZlLTZsYWQud2ViLXBs
YXRmb3JtLnRlc3SCI3huLS1sdmUtNmxhZC53d3cyLndlYi1wbGF0Zm9ybS50ZXN0
giZ4bi0tbHZlLTZsYWQud3d3Lm5vdC13ZWItcGxhdGZvcm0udGVzdIImd3d3Lnhu
LS1sdmUtNmxhZC5ub3Qtd2ViLXBsYXRmb3JtLnRlc3SCJ3huLS1sdmUtNmxhZC53
d3cxLm5vdC13ZWItcGxhdGZvcm0udGVzdIIneG4tLWx2ZS02bGFkLnd3dzIubm90
LXdlYi1wbGF0Zm9ybS50ZXN0gid3d3cxLnhuLS1sdmUtNmxhZC5ub3Qtd2ViLXBs
YXRmb3JtLnRlc3SCJ3d3dzIueG4tLWx2ZS02bGFkLm5vdC13ZWItcGxhdGZvcm0u
dGVzdIIpeG4tLW44ajZkczUzbHd3a3JxaHYyOGEud2ViLXBsYXRmb3JtLnRlc3SC
K3huLS1sdmUtNmxhZC54bi0tbHZlLTZsYWQud2ViLXBsYXRmb3JtLnRlc3SCLXd3
dy54bi0tbjhqNmRzNTNsd3drcnFodjI4YS53ZWItcGxhdGZvcm0udGVzdIIteG4t
LW44ajZkczUzbHd3a3JxaHYyOGEud3d3LndlYi1wbGF0Zm9ybS50ZXN0gi14bi0t
bjhqNmRzNTNsd3drcnFodjI4YS5ub3Qtd2ViLXBsYXRmb3JtLnRlc3SCLnhuLS1u
OGo2ZHM1M2x3d2tycWh2MjhhLnd3dzIud2ViLXBsYXRmb3JtLnRlc3SCLnd3dzIu
eG4tLW44ajZkczUzbHd3a3JxaHYyOGEud2ViLXBsYXRmb3JtLnRlc3SCLnhuLS1u
OGo2ZHM1M2x3d2tycWh2MjhhLnd3dzEud2ViLXBsYXRmb3JtLnRlc3SCLnd3dzEu
eG4tLW44ajZkczUzbHd3a3JxaHYyOGEud2ViLXBsYXRmb3JtLnRlc3SCL3huLS1s
dmUtNmxhZC54bi0tbHZlLTZsYWQubm90LXdlYi1wbGF0Zm9ybS50ZXN0gjF4bi0t
bjhqNmRzNTNsd3drcnFodjI4YS53d3cubm90LXdlYi1wbGF0Zm9ybS50ZXN0gjF3
d3cueG4tLW44ajZkczUzbHd3a3JxaHYyOGEubm90LXdlYi1wbGF0Zm9ybS50ZXN0
gjJ4bi0tbjhqNmRzNTNsd3drcnFodjI4YS53d3cxLm5vdC13ZWItcGxhdGZvcm0u
dGVzdIIyd3d3MS54bi0tbjhqNmRzNTNsd3drcnFodjI4YS5ub3Qtd2ViLXBsYXRm
b3JtLnRlc3SCMnhuLS1uOGo2ZHM1M2x3d2tycWh2MjhhLnd3dzIubm90LXdlYi1w
bGF0Zm9ybS50ZXN0gjJ3d3cyLnhuLS1uOGo2ZHM1M2x3d2tycWh2MjhhLm5vdC13
ZWItcGxhdGZvcm0udGVzdII2eG4tLWx2ZS02bGFkLnhuLS1uOGo2ZHM1M2x3d2ty
cWh2MjhhLndlYi1wbGF0Zm9ybS50ZXN0gjZ4bi0tbjhqNmRzNTNsd3drcnFodjI4
YS54bi0tbHZlLTZsYWQud2ViLXBsYXRmb3JtLnRlc3SCOnhuLS1uOGo2ZHM1M2x3
d2tycWh2MjhhLnhuLS1sdmUtNmxhZC5ub3Qtd2ViLXBsYXRmb3JtLnRlc3SCOnhu
LS1sdmUtNmxhZC54bi0tbjhqNmRzNTNsd3drcnFodjI4YS5ub3Qtd2ViLXBsYXRm
b3JtLnRlc3SCQXhuLS1uOGo2ZHM1M2x3d2tycWh2MjhhLnhuLS1uOGo2ZHM1M2x3
d2tycWh2MjhhLndlYi1wbGF0Zm9ybS50ZXN0gkV4bi0tbjhqNmRzNTNsd3drcnFo
djI4YS54bi0tbjhqNmRzNTNsd3drcnFodjI4YS5ub3Qtd2ViLXBsYXRmb3JtLnRl
c3QwDQYJKoZIhvcNAQELBQADggEBAGLHZjkPAQ6eUhUvdAlK2DPUIWRp10ponoQ5
vtH3TXOqYgaxMCtLoJxWjaIYYtZaAxIarO3FvgFb1xrjXEY1R4iVr6lTaZTIDgnf
edhuzkQn37Zwdn+rIAv97yOashk/rh50eRftvxoUREP5aq33xue7FjofcKnmIsgp
ic8F75Uy+aL+VT9Z2rjWhIHohuJ6LTesiUbMCIKeJy2skg4nY2l39kLjvYf473Lj
h0Pl6uPoV7D2wgjk57QnWclsTJawpgIngiTOWMiqUEje3T6O2uxClFU3aI6KWvRE
jviOgVExyOsEQ3i2iaR2CcF7U1hBlsaukcqoRQLZ5Lzr1LBbo74=
-----END CERTIFICATE-----
