Certificate:
    Data:
        Version: 3 (0x2)
        Serial Number: 646907 (0x9defb)
        Signature Algorithm: sha256WithRSAEncryption
        Issuer: CN=web-platform-tests
        Validity
            Not Before: Nov 21 13:32:15 2024 GMT
            Not After : Nov 21 13:32:15 2025 GMT
        Subject: CN=web-platform.test
        Subject Public Key Info:
            Public Key Algorithm: rsaEncryption
                Public-Key: (2048 bit)
                Modulus:
                    00:c0:70:ec:6a:07:9d:51:2f:9a:b1:8d:a9:c5:cf:
                    21:01:d2:51:b6:e6:0c:49:2a:05:ef:c1:dc:9f:55:
                    7e:d0:53:28:90:bc:a6:d8:fe:2c:b1:24:85:ed:6e:
                    05:0f:05:77:c7:91:e5:e1:8a:46:89:99:74:1d:7c:
                    9b:63:69:4f:37:cb:dd:50:39:15:87:85:6e:85:38:
                    3b:70:43:04:04:a0:75:08:47:90:d0:bf:51:ec:9f:
                    d3:da:03:41:5f:f2:34:54:ee:64:68:d5:ac:cc:ee:
                    46:1f:13:e3:a0:e8:bb:f6:01:4f:70:64:d6:4c:a4:
                    55:25:05:d2:40:7d:be:4c:0a:84:69:88:4a:4f:56:
                    15:16:6f:bc:d1:5b:44:1e:68:5d:6a:0d:e2:55:31:
                    29:23:80:10:e8:27:ad:51:38:c5:bb:4a:4c:9f:24:
                    f7:2b:22:4a:09:f4:22:f9:a8:19:09:57:07:dd:dd:
                    5c:81:46:76:96:57:46:2c:59:0c:36:ae:2d:dd:aa:
                    7a:a7:b4:e6:ce:e0:f8:3a:f6:40:77:07:06:ae:ed:
                    2f:82:73:90:cb:3f:66:a2:8c:4f:fd:72:cd:4b:04:
                    7c:8a:a7:18:11:33:18:88:8a:44:18:8a:6e:25:96:
                    29:30:f0:15:25:43:98:60:c7:32:99:5c:fa:7e:ae:
                    e2:d1
                Exponent: 65537 (0x10001)
        X509v3 extensions:
            X509v3 Basic Constraints: 
                CA:FALSE
            X509v3 Subject Key Identifier: 
                2C:61:D2:C0:A5:7F:81:E7:BE:1E:BE:A6:74:01:91:8E:D3:12:B8:34
            X509v3 Authority Key Identifier: 
                59:4C:AE:14:11:47:E1:BD:FA:C2:7C:76:82:36:29:84:46:03:71:C9
            X509v3 Key Usage: 
                Digital Signature, Non Repudiation, Key Encipherment
            X509v3 Extended Key Usage: 
                TLS Web Server Authentication
            X509v3 Subject Alternative Name: 
                DNS:web-platform.test, DNS:www.web-platform.test, DNS:not-web-platform.test, DNS:www2.web-platform.test, DNS:www1.web-platform.test, DNS:www.not-web-platform.test, DNS:www.www.web-platform.test, DNS:www1.not-web-platform.test, DNS:www.www1.web-platform.test, DNS:www.www2.web-platform.test, DNS:www2.www.web-platform.test, DNS:www1.www.web-platform.test, DNS:www2.not-web-platform.test, DNS:www1.www1.web-platform.test, DNS:www2.www1.web-platform.test, DNS:www2.www2.web-platform.test, DNS:www1.www2.web-platform.test, DNS:www.www.not-web-platform.test, DNS:www2.www.not-web-platform.test, DNS:www1.www.not-web-platform.test, DNS:www.www2.not-web-platform.test, DNS:www.www1.not-web-platform.test, DNS:xn--lve-6lad.web-platform.test, DNS:www1.www1.not-web-platform.test, DNS:www2.www1.not-web-platform.test, DNS:www2.www2.not-web-platform.test, DNS:www1.www2.not-web-platform.test, DNS:www.xn--lve-6lad.web-platform.test, DNS:xn--lve-6lad.not-web-platform.test, DNS:xn--lve-6lad.www.web-platform.test, DNS:www2.xn--lve-6lad.web-platform.test, DNS:xn--lve-6lad.www1.web-platform.test, DNS:www1.xn--lve-6lad.web-platform.test, DNS:xn--lve-6lad.www2.web-platform.test, DNS:xn--lve-6lad.www.not-web-platform.test, DNS:www.xn--lve-6lad.not-web-platform.test, DNS:xn--lve-6lad.www1.not-web-platform.test, DNS:www1.xn--lve-6lad.not-web-platform.test, DNS:xn--lve-6lad.www2.not-web-platform.test, DNS:www2.xn--lve-6lad.not-web-platform.test, DNS:xn--n8j6ds53lwwkrqhv28a.web-platform.test, DNS:xn--lve-6lad.xn--lve-6lad.web-platform.test, DNS:xn--n8j6ds53lwwkrqhv28a.www.web-platform.test, DNS:www.xn--n8j6ds53lwwkrqhv28a.web-platform.test, DNS:xn--n8j6ds53lwwkrqhv28a.not-web-platform.test, DNS:xn--n8j6ds53lwwkrqhv28a.www1.web-platform.test, DNS:xn--n8j6ds53lwwkrqhv28a.www2.web-platform.test, DNS:www2.xn--n8j6ds53lwwkrqhv28a.web-platform.test, DNS:www1.xn--n8j6ds53lwwkrqhv28a.web-platform.test, DNS:xn--lve-6lad.xn--lve-6lad.not-web-platform.test, DNS:xn--n8j6ds53lwwkrqhv28a.www.not-web-platform.test, DNS:www.xn--n8j6ds53lwwkrqhv28a.not-web-platform.test, DNS:xn--n8j6ds53lwwkrqhv28a.www2.not-web-platform.test, DNS:www1.xn--n8j6ds53lwwkrqhv28a.not-web-platform.test, DNS:www2.xn--n8j6ds53lwwkrqhv28a.not-web-platform.test, DNS:xn--n8j6ds53lwwkrqhv28a.www1.not-web-platform.test, DNS:xn--lve-6lad.xn--n8j6ds53lwwkrqhv28a.web-platform.test, DNS:xn--n8j6ds53lwwkrqhv28a.xn--lve-6lad.web-platform.test, DNS:xn--lve-6lad.xn--n8j6ds53lwwkrqhv28a.not-web-platform.test, DNS:xn--n8j6ds53lwwkrqhv28a.xn--lve-6lad.not-web-platform.test, DNS:xn--n8j6ds53lwwkrqhv28a.xn--n8j6ds53lwwkrqhv28a.web-platform.test, DNS:xn--n8j6ds53lwwkrqhv28a.xn--n8j6ds53lwwkrqhv28a.not-web-platform.test
    Signature Algorithm: sha256WithRSAEncryption
    Signature Value:
        8b:2a:3d:48:3e:60:2e:a9:76:fa:8d:77:de:f7:f7:29:c7:49:
        8f:ae:f3:b8:26:5d:69:1c:67:5d:e9:3e:99:7e:3c:9d:e2:e9:
        37:5d:03:1c:6d:c8:18:0d:85:05:06:c2:fd:3b:59:4a:1c:7f:
        85:a9:ac:3c:84:8e:7b:c1:37:38:73:62:a6:53:ff:dd:ea:f4:
        8e:49:de:fc:df:a5:61:5f:22:d0:e5:5f:1a:c1:31:df:da:76:
        b0:98:bf:96:4d:66:85:86:be:79:48:a9:51:53:80:b6:57:be:
        70:fb:3e:f8:55:d4:d9:f2:02:18:f6:3b:df:45:ac:21:cf:b9:
        78:18:03:66:9b:f4:97:01:84:bc:d6:fc:b5:e1:23:0d:72:da:
        5a:b3:01:a2:10:3a:e8:ca:67:23:ee:0b:a2:28:42:f6:85:b2:
        61:f9:0f:55:b1:7a:38:3f:da:1b:0d:9f:df:f4:38:30:7e:68:
        a9:5e:d8:65:e7:ef:0d:de:74:c2:ba:0b:8f:bb:ba:5c:ba:54:
        25:c4:d3:78:9f:93:99:78:c4:79:9a:68:57:15:66:89:d1:8d:
        81:c3:a3:ad:99:d6:15:65:1a:0b:0f:ec:9d:59:94:bc:93:c2:
        45:cf:7e:ed:8a:f4:5a:a8:42:3d:dd:9b:3f:ad:fc:42:5b:23:
        a8:07:8e:0a
-----BEGIN CERTIFICATE-----
MIIMsjCCC5qgAwIBAgIDCd77MA0GCSqGSIb3DQEBCwUAMB0xGzAZBgNVBAMMEndl
Yi1wbGF0Zm9ybS10ZXN0czAeFw0yNDExMjExMzMyMTVaFw0yNTExMjExMzMyMTVa
MBwxGjAYBgNVBAMMEXdlYi1wbGF0Zm9ybS50ZXN0MIIBIjANBgkqhkiG9w0BAQEF
AAOCAQ8AMIIBCgKCAQEAwHDsagedUS+asY2pxc8hAdJRtuYMSSoF78Hcn1V+0FMo
kLym2P4ssSSF7W4FDwV3x5Hl4YpGiZl0HXybY2lPN8vdUDkVh4VuhTg7cEMEBKB1
CEeQ0L9R7J/T2gNBX/I0VO5kaNWszO5GHxPjoOi79gFPcGTWTKRVJQXSQH2+TAqE
aYhKT1YVFm+80VtEHmhdag3iVTEpI4AQ6CetUTjFu0pMnyT3KyJKCfQi+agZCVcH
3d1cgUZ2lldGLFkMNq4t3ap6p7TmzuD4OvZAdwcGru0vgnOQyz9mooxP/XLNSwR8
iqcYETMYiIpEGIpuJZYpMPAVJUOYYMcymVz6fq7i0QIDAQABo4IJ+jCCCfYwCQYD
VR0TBAIwADAdBgNVHQ4EFgQULGHSwKV/gee+Hr6mdAGRjtMSuDQwHwYDVR0jBBgw
FoAUWUyuFBFH4b36wnx2gjYphEYDcckwCwYDVR0PBAQDAgXgMBMGA1UdJQQMMAoG
CCsGAQUFBwMBMIIJhQYDVR0RBIIJfDCCCXiCEXdlYi1wbGF0Zm9ybS50ZXN0ghV3
d3cud2ViLXBsYXRmb3JtLnRlc3SCFW5vdC13ZWItcGxhdGZvcm0udGVzdIIWd3d3
Mi53ZWItcGxhdGZvcm0udGVzdIIWd3d3MS53ZWItcGxhdGZvcm0udGVzdIIZd3d3
Lm5vdC13ZWItcGxhdGZvcm0udGVzdIIZd3d3Lnd3dy53ZWItcGxhdGZvcm0udGVz
dIIad3d3MS5ub3Qtd2ViLXBsYXRmb3JtLnRlc3SCGnd3dy53d3cxLndlYi1wbGF0
Zm9ybS50ZXN0ghp3d3cud3d3Mi53ZWItcGxhdGZvcm0udGVzdIIad3d3Mi53d3cu
d2ViLXBsYXRmb3JtLnRlc3SCGnd3dzEud3d3LndlYi1wbGF0Zm9ybS50ZXN0ghp3
d3cyLm5vdC13ZWItcGxhdGZvcm0udGVzdIIbd3d3MS53d3cxLndlYi1wbGF0Zm9y
bS50ZXN0ght3d3cyLnd3dzEud2ViLXBsYXRmb3JtLnRlc3SCG3d3dzIud3d3Mi53
ZWItcGxhdGZvcm0udGVzdIIbd3d3MS53d3cyLndlYi1wbGF0Zm9ybS50ZXN0gh13
d3cud3d3Lm5vdC13ZWItcGxhdGZvcm0udGVzdIIed3d3Mi53d3cubm90LXdlYi1w
bGF0Zm9ybS50ZXN0gh53d3cxLnd3dy5ub3Qtd2ViLXBsYXRmb3JtLnRlc3SCHnd3
dy53d3cyLm5vdC13ZWItcGxhdGZvcm0udGVzdIIed3d3Lnd3dzEubm90LXdlYi1w
bGF0Zm9ybS50ZXN0gh54bi0tbHZlLTZsYWQud2ViLXBsYXRmb3JtLnRlc3SCH3d3
dzEud3d3MS5ub3Qtd2ViLXBsYXRmb3JtLnRlc3SCH3d3dzIud3d3MS5ub3Qtd2Vi
LXBsYXRmb3JtLnRlc3SCH3d3dzIud3d3Mi5ub3Qtd2ViLXBsYXRmb3JtLnRlc3SC
H3d3dzEud3d3Mi5ub3Qtd2ViLXBsYXRmb3JtLnRlc3SCInd3dy54bi0tbHZlLTZs
YWQud2ViLXBsYXRmb3JtLnRlc3SCInhuLS1sdmUtNmxhZC5ub3Qtd2ViLXBsYXRm
b3JtLnRlc3SCInhuLS1sdmUtNmxhZC53d3cud2ViLXBsYXRmb3JtLnRlc3SCI3d3
dzIueG4tLWx2ZS02bGFkLndlYi1wbGF0Zm9ybS50ZXN0giN4bi0tbHZlLTZsYWQu
d3d3MS53ZWItcGxhdGZvcm0udGVzdIIjd3d3MS54bi0tbHZlLTZsYWQud2ViLXBs
YXRmb3JtLnRlc3SCI3huLS1sdmUtNmxhZC53d3cyLndlYi1wbGF0Zm9ybS50ZXN0
giZ4bi0tbHZlLTZsYWQud3d3Lm5vdC13ZWItcGxhdGZvcm0udGVzdIImd3d3Lnhu
LS1sdmUtNmxhZC5ub3Qtd2ViLXBsYXRmb3JtLnRlc3SCJ3huLS1sdmUtNmxhZC53
d3cxLm5vdC13ZWItcGxhdGZvcm0udGVzdIInd3d3MS54bi0tbHZlLTZsYWQubm90
LXdlYi1wbGF0Zm9ybS50ZXN0gid4bi0tbHZlLTZsYWQud3d3Mi5ub3Qtd2ViLXBs
YXRmb3JtLnRlc3SCJ3d3dzIueG4tLWx2ZS02bGFkLm5vdC13ZWItcGxhdGZvcm0u
dGVzdIIpeG4tLW44ajZkczUzbHd3a3JxaHYyOGEud2ViLXBsYXRmb3JtLnRlc3SC
K3huLS1sdmUtNmxhZC54bi0tbHZlLTZsYWQud2ViLXBsYXRmb3JtLnRlc3SCLXhu
LS1uOGo2ZHM1M2x3d2tycWh2MjhhLnd3dy53ZWItcGxhdGZvcm0udGVzdIItd3d3
LnhuLS1uOGo2ZHM1M2x3d2tycWh2MjhhLndlYi1wbGF0Zm9ybS50ZXN0gi14bi0t
bjhqNmRzNTNsd3drcnFodjI4YS5ub3Qtd2ViLXBsYXRmb3JtLnRlc3SCLnhuLS1u
OGo2ZHM1M2x3d2tycWh2MjhhLnd3dzEud2ViLXBsYXRmb3JtLnRlc3SCLnhuLS1u
OGo2ZHM1M2x3d2tycWh2MjhhLnd3dzIud2ViLXBsYXRmb3JtLnRlc3SCLnd3dzIu
eG4tLW44ajZkczUzbHd3a3JxaHYyOGEud2ViLXBsYXRmb3JtLnRlc3SCLnd3dzEu
eG4tLW44ajZkczUzbHd3a3JxaHYyOGEud2ViLXBsYXRmb3JtLnRlc3SCL3huLS1s
dmUtNmxhZC54bi0tbHZlLTZsYWQubm90LXdlYi1wbGF0Zm9ybS50ZXN0gjF4bi0t
bjhqNmRzNTNsd3drcnFodjI4YS53d3cubm90LXdlYi1wbGF0Zm9ybS50ZXN0gjF3
d3cueG4tLW44ajZkczUzbHd3a3JxaHYyOGEubm90LXdlYi1wbGF0Zm9ybS50ZXN0
gjJ4bi0tbjhqNmRzNTNsd3drcnFodjI4YS53d3cyLm5vdC13ZWItcGxhdGZvcm0u
dGVzdIIyd3d3MS54bi0tbjhqNmRzNTNsd3drcnFodjI4YS5ub3Qtd2ViLXBsYXRm
b3JtLnRlc3SCMnd3dzIueG4tLW44ajZkczUzbHd3a3JxaHYyOGEubm90LXdlYi1w
bGF0Zm9ybS50ZXN0gjJ4bi0tbjhqNmRzNTNsd3drcnFodjI4YS53d3cxLm5vdC13
ZWItcGxhdGZvcm0udGVzdII2eG4tLWx2ZS02bGFkLnhuLS1uOGo2ZHM1M2x3d2ty
cWh2MjhhLndlYi1wbGF0Zm9ybS50ZXN0gjZ4bi0tbjhqNmRzNTNsd3drcnFodjI4
YS54bi0tbHZlLTZsYWQud2ViLXBsYXRmb3JtLnRlc3SCOnhuLS1sdmUtNmxhZC54
bi0tbjhqNmRzNTNsd3drcnFodjI4YS5ub3Qtd2ViLXBsYXRmb3JtLnRlc3SCOnhu
LS1uOGo2ZHM1M2x3d2tycWh2MjhhLnhuLS1sdmUtNmxhZC5ub3Qtd2ViLXBsYXRm
b3JtLnRlc3SCQXhuLS1uOGo2ZHM1M2x3d2tycWh2MjhhLnhuLS1uOGo2ZHM1M2x3
d2tycWh2MjhhLndlYi1wbGF0Zm9ybS50ZXN0gkV4bi0tbjhqNmRzNTNsd3drcnFo
djI4YS54bi0tbjhqNmRzNTNsd3drcnFodjI4YS5ub3Qtd2ViLXBsYXRmb3JtLnRl
c3QwDQYJKoZIhvcNAQELBQADggEBAIsqPUg+YC6pdvqNd9739ynHSY+u87gmXWkc
Z13pPpl+PJ3i6TddAxxtyBgNhQUGwv07WUocf4WprDyEjnvBNzhzYqZT/93q9I5J
3vzfpWFfItDlXxrBMd/adrCYv5ZNZoWGvnlIqVFTgLZXvnD7PvhV1NnyAhj2O99F
rCHPuXgYA2ab9JcBhLzW/LXhIw1y2lqzAaIQOujKZyPuC6IoQvaFsmH5D1Wxejg/
2hsNn9/0ODB+aKle2GXn7w3edMK6C4+7uly6VCXE03ifk5l4xHmaaFcVZonRjYHD
o62Z1hVlGgsP7J1ZlLyTwkXPfu2K9FqoQj3dmz+t/EJbI6gHjgo=
-----END CERTIFICATE-----
